target datalayout = "e-m:e-p270:32:32-p271:32:32-p272:64:64-i64:64-i128:128-f80:128-n8:16:32:64-S128"
target triple = "x86_64-pc-linux-gnu"

%struct.anon = type { i32, ptr }

@.str = private unnamed_addr constant [27 x i8] c"Invalid platform ID 0x%08X\00", align 1
@.str.1 = private unnamed_addr constant [17 x i8] c"XDG_SESSION_TYPE\00", align 1
@.str.2 = private unnamed_addr constant [8 x i8] c"wayland\00", align 1
@.str.3 = private unnamed_addr constant [16 x i8] c"WAYLAND_DISPLAY\00", align 1
@.str.4 = private unnamed_addr constant [4 x i8] c"x11\00", align 1
@.str.5 = private unnamed_addr constant [8 x i8] c"DISPLAY\00", align 1
@.str.6 = private unnamed_addr constant [40 x i8] c"Failed to detect any supported platform\00", align 1
@.str.7 = private unnamed_addr constant [40 x i8] c"The requested platform is not supported\00", align 1
@supportedPlatforms = internal constant [2 x { i32, [4 x i8], ptr }] [{ i32, [4 x i8], ptr } { i32 393219, [4 x i8] zeroinitializer, ptr @_glfwConnectWayland }, { i32, [4 x i8], ptr } { i32 393220, [4 x i8] zeroinitializer, ptr @_glfwConnectX11 }], align 16

; Function Attrs: nounwind uwtable
define hidden i32 @_glfwSelectPlatform(i32 noundef %0, ptr noundef %1) #0 {
  %3 = alloca i32, align 4
  %4 = alloca i32, align 4
  %5 = alloca ptr, align 8
  %6 = alloca i64, align 8
  %7 = alloca i64, align 8
  %8 = alloca i32, align 4
  %9 = alloca ptr, align 8
  store i32 %0, ptr %4, align 4, !tbaa !3
  store ptr %1, ptr %5, align 8, !tbaa !7
  call void @llvm.lifetime.start.p0(i64 8, ptr %6) #5
  store i64 2, ptr %6, align 8, !tbaa !10
  call void @llvm.lifetime.start.p0(i64 8, ptr %7) #5
  %10 = load i32, ptr %4, align 4, !tbaa !3
  %11 = icmp ne i32 %10, 393216
  br i1 %11, label %12, label %29

12:                                               ; preds = %2
  %13 = load i32, ptr %4, align 4, !tbaa !3
  %14 = icmp ne i32 %13, 393217
  br i1 %14, label %15, label %29

15:                                               ; preds = %12
  %16 = load i32, ptr %4, align 4, !tbaa !3
  %17 = icmp ne i32 %16, 393218
  br i1 %17, label %18, label %29

18:                                               ; preds = %15
  %19 = load i32, ptr %4, align 4, !tbaa !3
  %20 = icmp ne i32 %19, 393219
  br i1 %20, label %21, label %29

21:                                               ; preds = %18
  %22 = load i32, ptr %4, align 4, !tbaa !3
  %23 = icmp ne i32 %22, 393220
  br i1 %23, label %24, label %29

24:                                               ; preds = %21
  %25 = load i32, ptr %4, align 4, !tbaa !3
  %26 = icmp ne i32 %25, 393221
  br i1 %26, label %27, label %29

27:                                               ; preds = %24
  %28 = load i32, ptr %4, align 4, !tbaa !3
  call void (i32, ptr, ...) @_glfwInputError(i32 noundef 65539, ptr noundef @.str, i32 noundef %28)
  store i32 0, ptr %3, align 4
  store i32 1, ptr %8, align 4
  br label %110

29:                                               ; preds = %24, %21, %18, %15, %12, %2
  %30 = load i32, ptr %4, align 4, !tbaa !3
  %31 = icmp eq i32 %30, 393221
  br i1 %31, label %32, label %36

32:                                               ; preds = %29
  %33 = load i32, ptr %4, align 4, !tbaa !3
  %34 = load ptr, ptr %5, align 8, !tbaa !7
  %35 = call i32 @_glfwConnectNull(i32 noundef %33, ptr noundef %34)
  store i32 %35, ptr %3, align 4
  store i32 1, ptr %8, align 4
  br label %110

36:                                               ; preds = %29
  br label %37

37:                                               ; preds = %36
  %38 = load i32, ptr %4, align 4, !tbaa !3
  %39 = icmp eq i32 %38, 393216
  br i1 %39, label %40, label %63

40:                                               ; preds = %37
  call void @llvm.lifetime.start.p0(i64 8, ptr %9) #5
  %41 = call ptr @getenv(ptr noundef @.str.1) #5
  store ptr %41, ptr %9, align 8, !tbaa !12
  %42 = load ptr, ptr %9, align 8, !tbaa !12
  %43 = icmp ne ptr %42, null
  br i1 %43, label %44, label %62

44:                                               ; preds = %40
  %45 = load ptr, ptr %9, align 8, !tbaa !12
  %46 = call i32 @strcmp(ptr noundef %45, ptr noundef @.str.2) #6
  %47 = icmp eq i32 %46, 0
  br i1 %47, label %48, label %52

48:                                               ; preds = %44
  %49 = call ptr @getenv(ptr noundef @.str.3) #5
  %50 = icmp ne ptr %49, null
  br i1 %50, label %51, label %52

51:                                               ; preds = %48
  store i32 393219, ptr %4, align 4, !tbaa !3
  br label %61

52:                                               ; preds = %48, %44
  %53 = load ptr, ptr %9, align 8, !tbaa !12
  %54 = call i32 @strcmp(ptr noundef %53, ptr noundef @.str.4) #6
  %55 = icmp eq i32 %54, 0
  br i1 %55, label %56, label %60

56:                                               ; preds = %52
  %57 = call ptr @getenv(ptr noundef @.str.5) #5
  %58 = icmp ne ptr %57, null
  br i1 %58, label %59, label %60

59:                                               ; preds = %56
  store i32 393220, ptr %4, align 4, !tbaa !3
  br label %60

60:                                               ; preds = %59, %56, %52
  br label %61

61:                                               ; preds = %60, %51
  br label %62

62:                                               ; preds = %61, %40
  call void @llvm.lifetime.end.p0(i64 8, ptr %9) #5
  br label %63

63:                                               ; preds = %62, %37
  %64 = load i32, ptr %4, align 4, !tbaa !3
  %65 = icmp eq i32 %64, 393216
  br i1 %65, label %66, label %85

66:                                               ; preds = %63
  store i64 0, ptr %7, align 8, !tbaa !10
  br label %67

67:                                               ; preds = %81, %66
  %68 = load i64, ptr %7, align 8, !tbaa !10
  %69 = icmp ult i64 %68, 2
  br i1 %69, label %70, label %84

70:                                               ; preds = %67
  %71 = load i64, ptr %7, align 8, !tbaa !10
  %72 = getelementptr inbounds nuw [2 x %struct.anon], ptr @supportedPlatforms, i64 0, i64 %71
  %73 = getelementptr inbounds nuw %struct.anon, ptr %72, i32 0, i32 1
  %74 = load ptr, ptr %73, align 8, !tbaa !14
  %75 = load i32, ptr %4, align 4, !tbaa !3
  %76 = load ptr, ptr %5, align 8, !tbaa !7
  %77 = call i32 %74(i32 noundef %75, ptr noundef %76)
  %78 = icmp ne i32 %77, 0
  br i1 %78, label %79, label %80

79:                                               ; preds = %70
  store i32 1, ptr %3, align 4
  store i32 1, ptr %8, align 4
  br label %110

80:                                               ; preds = %70
  br label %81

81:                                               ; preds = %80
  %82 = load i64, ptr %7, align 8, !tbaa !10
  %83 = add i64 %82, 1
  store i64 %83, ptr %7, align 8, !tbaa !10
  br label %67

84:                                               ; preds = %67
  call void (i32, ptr, ...) @_glfwInputError(i32 noundef 65550, ptr noundef @.str.6)
  br label %109

85:                                               ; preds = %63
  store i64 0, ptr %7, align 8, !tbaa !10
  br label %86

86:                                               ; preds = %105, %85
  %87 = load i64, ptr %7, align 8, !tbaa !10
  %88 = icmp ult i64 %87, 2
  br i1 %88, label %89, label %108

89:                                               ; preds = %86
  %90 = load i64, ptr %7, align 8, !tbaa !10
  %91 = getelementptr inbounds nuw [2 x %struct.anon], ptr @supportedPlatforms, i64 0, i64 %90
  %92 = getelementptr inbounds nuw %struct.anon, ptr %91, i32 0, i32 0
  %93 = load i32, ptr %92, align 16, !tbaa !16
  %94 = load i32, ptr %4, align 4, !tbaa !3
  %95 = icmp eq i32 %93, %94
  br i1 %95, label %96, label %104

96:                                               ; preds = %89
  %97 = load i64, ptr %7, align 8, !tbaa !10
  %98 = getelementptr inbounds nuw [2 x %struct.anon], ptr @supportedPlatforms, i64 0, i64 %97
  %99 = getelementptr inbounds nuw %struct.anon, ptr %98, i32 0, i32 1
  %100 = load ptr, ptr %99, align 8, !tbaa !14
  %101 = load i32, ptr %4, align 4, !tbaa !3
  %102 = load ptr, ptr %5, align 8, !tbaa !7
  %103 = call i32 %100(i32 noundef %101, ptr noundef %102)
  store i32 %103, ptr %3, align 4
  store i32 1, ptr %8, align 4
  br label %110

104:                                              ; preds = %89
  br label %105

105:                                              ; preds = %104
  %106 = load i64, ptr %7, align 8, !tbaa !10
  %107 = add i64 %106, 1
  store i64 %107, ptr %7, align 8, !tbaa !10
  br label %86

108:                                              ; preds = %86
  call void (i32, ptr, ...) @_glfwInputError(i32 noundef 65550, ptr noundef @.str.7)
  br label %109

109:                                              ; preds = %108, %84
  store i32 0, ptr %3, align 4
  store i32 1, ptr %8, align 4
  br label %110

110:                                              ; preds = %109, %96, %79, %32, %27
  call void @llvm.lifetime.end.p0(i64 8, ptr %7) #5
  call void @llvm.lifetime.end.p0(i64 8, ptr %6) #5
  %111 = load i32, ptr %3, align 4
  ret i32 %111
}