; Function Attrs: nounwind uwtable
define hidden i32 @_glfwSelectPlatform(i32 noundef %0, ptr noundef %1) local_unnamed_addr #0 {
  %3 = add i32 %0, -393222
  %or.cond9 = icmp ult i32 %3, -6
  br i1 %or.cond9, label %4, label %5

4:                                                ; preds = %2
  tail call void (i32, ptr, ...) @_glfwInputError(i32 noundef 65539, ptr noundef nonnull @.str, i32 noundef %0) #5
  br label %.loopexit

5:                                                ; preds = %2
  switch i32 %0, label %.preheader44.preheader [
    i32 393221, label %6
    i32 393216, label %8
  ]

6:                                                ; preds = %5
  %7 = tail call i32 @_glfwConnectNull(i32 noundef 393221, ptr noundef %1) #5
  br label %.loopexit

8:                                                ; preds = %5
  %9 = tail call ptr @getenv(ptr noundef nonnull @.str.1) #5
  %.not = icmp eq ptr %9, null
  br i1 %.not, label %.preheader.preheader, label %10

.preheader.preheader:                             ; preds = %18, %15, %8
  br label %.preheader

10:                                               ; preds = %8
  %11 = tail call i32 @strcmp(ptr noundef nonnull dereferenceable(1) %9, ptr noundef nonnull dereferenceable(8) @.str.2) #6
  %12 = icmp eq i32 %11, 0
  br i1 %12, label %13, label %15

13:                                               ; preds = %10
  %14 = tail call ptr @getenv(ptr noundef nonnull @.str.3) #5
  %.not41 = icmp eq ptr %14, null
  br i1 %.not41, label %15, label %.preheader44.preheader

15:                                               ; preds = %13, %10
  %16 = tail call i32 @strcmp(ptr noundef nonnull dereferenceable(1) %9, ptr noundef nonnull dereferenceable(4) @.str.4) #6
  %17 = icmp eq i32 %16, 0
  br i1 %17, label %18, label %.preheader.preheader

18:                                               ; preds = %15
  %19 = tail call ptr @getenv(ptr noundef nonnull @.str.5) #5
  %.not42 = icmp eq ptr %19, null
  br i1 %.not42, label %.preheader.preheader, label %.preheader44.preheader

.preheader44.preheader:                           ; preds = %5, %13, %18
  %.037 = phi i32 [ %0, %5 ], [ 393219, %13 ], [ 393220, %18 ]
  br label %.preheader44

20:                                               ; preds = %.preheader
  br i1 %21, label %.preheader, label %25

.preheader:                                       ; preds = %.preheader.preheader, %20
  %21 = phi i1 [ false, %20 ], [ true, %.preheader.preheader ]
  %.03646 = phi i64 [ 1, %20 ], [ 0, %.preheader.preheader ]
  %22 = getelementptr inbounds nuw [2 x %struct.anon], ptr @supportedPlatforms, i64 0, i64 %.03646, i32 1
  %23 = load ptr, ptr %22, align 8, !tbaa !3
  %24 = tail call i32 %23(i32 noundef 393216, ptr noundef %1) #5
  %.not43 = icmp eq i32 %24, 0
  br i1 %.not43, label %20, label %.loopexit

25:                                               ; preds = %20
  tail call void (i32, ptr, ...) @_glfwInputError(i32 noundef 65550, ptr noundef nonnull @.str.6) #5
  br label %.loopexit

26:                                               ; preds = %.preheader44
  br i1 %27, label %.preheader44, label %35

.preheader44:                                     ; preds = %.preheader44.preheader, %26
  %27 = phi i1 [ false, %26 ], [ true, %.preheader44.preheader ]
  %.145 = phi i64 [ 1, %26 ], [ 0, %.preheader44.preheader ]
  %28 = getelementptr inbounds nuw [2 x %struct.anon], ptr @supportedPlatforms, i64 0, i64 %.145
  %29 = load i32, ptr %28, align 16, !tbaa !9
  %30 = icmp eq i32 %29, %.037
  br i1 %30, label %31, label %26

31:                                               ; preds = %.preheader44
  %32 = getelementptr inbounds nuw i8, ptr %28, i64 8
  %33 = load ptr, ptr %32, align 8, !tbaa !3
  %34 = tail call i32 %33(i32 noundef %.037, ptr noundef %1) #5
  br label %.loopexit

35:                                               ; preds = %26
  tail call void (i32, ptr, ...) @_glfwInputError(i32 noundef 65550, ptr noundef nonnull @.str.7) #5
  br label %.loopexit

.loopexit:                                        ; preds = %.preheader, %25, %35, %31, %6, %4
  %.0 = phi i32 [ 0, %4 ], [ %7, %6 ], [ %34, %31 ], [ 0, %35 ], [ 0, %25 ], [ 1, %.preheader ]
  ret i32 %.0
}